; Function Attrs: nounwind uwtable
define dso_local i32 @nghttp2_session_terminate_session2(ptr noundef %0, i32 noundef %1, i32 noundef %2) local_unnamed_addr #1 {
  %4 = getelementptr inbounds nuw i8, ptr %0, i64 2845
  %5 = load i8, ptr %4, align 1, !tbaa !4
  %6 = and i8 %5, 1
  %.not.i = icmp eq i8 %6, 0
  br i1 %.not.i, label %7, label %session_terminate_session.exit

7:                                                ; preds = %3
  %8 = getelementptr inbounds nuw i8, ptr %0, i64 952
  store i32 15, ptr %8, align 8, !tbaa !39
  %9 = tail call i32 @nghttp2_session_add_goaway(ptr noundef nonnull %0, i32 noundef %1, i32 noundef %2, ptr noundef null, i64 noundef 0, i8 noundef zeroext 1)
  %.not17.i = icmp eq i32 %9, 0
  br i1 %.not17.i, label %10, label %session_terminate_session.exit

10:                                               ; preds = %7
  %11 = load i8, ptr %4, align 1, !tbaa !4
  %12 = or i8 %11, 1
  store i8 %12, ptr %4, align 1, !tbaa !4
  br label %session_terminate_session.exit

session_terminate_session.exit:                   ; preds = %3, %7, %10
  %.014.i = phi i32 [ 0, %10 ], [ 0, %3 ], [ %9, %7 ]
  ret i32 %.014.i
}